; Function Attrs: mustprogress uwtable
define void @_ZN32pxrInternal_v0_24__pxrReserved__12TfBigRWMutexC2Ev(ptr noundef nonnull writeonly align 8 captures(none) dereferenceable(9) initializes((0, 9)) %0) unnamed_addr #0 align 2 personality ptr @__gxx_personality_v0 {
_ZSt11make_uniqueIA_N32pxrInternal_v0_24__pxrReserved__12TfBigRWMutex10_LockStateEENSt8__detail9_MakeUniqIT_E7__arrayEm.exit:
  tail call void @llvm.experimental.noalias.scope.decl(metadata !4)
  %1 = tail call noalias noundef nonnull dereferenceable(1024) ptr @_Znam(i64 noundef 1024) #8, !noalias !4
  tail call void @llvm.memset.p0.i64(ptr noundef nonnull align 4 dereferenceable(1024) %1, i8 0, i64 1024, i1 false), !noalias !4
  store ptr %1, ptr %0, align 8, !alias.scope !4
  %2 = getelementptr inbounds nuw i8, ptr %0, i64 8
  store i8 0, ptr %2, align 8
  ret void
}